target datalayout = "e-m:e-p270:32:32-p271:32:32-p272:64:64-i64:64-i128:128-f80:128-n8:16:32:64-S128"
target triple = "x86_64-unknown-linux-gnu"

%"struct.ue2::SlotCacheEntry" = type <{ %"class.std::unique_ptr", %"class.ue2::CharReach", i32, i8, [3 x i8], i32, [4 x i8] }>
%"class.std::unique_ptr" = type { %"struct.std::__uniq_ptr_data" }
%"struct.std::__uniq_ptr_data" = type { %"class.std::__uniq_ptr_impl" }
%"class.std::__uniq_ptr_impl" = type { %"class.std::tuple" }
%"class.std::tuple" = type { %"struct.std::_Tuple_impl" }
%"struct.std::_Tuple_impl" = type { %"struct.std::_Head_base.1" }
%"struct.std::_Head_base.1" = type { ptr }
%"class.ue2::CharReach" = type { %"class.ue2::bitfield" }
%"class.ue2::bitfield" = type { %"struct.std::array" }
%"struct.std::array" = type { [4 x i64] }

; Function Attrs: mustprogress nounwind uwtable
define linkonce_odr dso_local noundef i32 @_ZSt8__memcmpIyyEiPKT_PKT0_m(ptr noundef %__first1, ptr noundef %__first2, i64 noundef %__num) #1 comdat {
entry:
  %__first1.addr = alloca ptr, align 8
  %__first2.addr = alloca ptr, align 8
  %__num.addr = alloca i64, align 8
  store ptr %__first1, ptr %__first1.addr, align 8
  store ptr %__first2, ptr %__first2.addr, align 8
  store i64 %__num, ptr %__num.addr, align 8
  %0 = load ptr, ptr %__first1.addr, align 8
  %1 = load ptr, ptr %__first2.addr, align 8
  %2 = load i64, ptr %__num.addr, align 8
  %mul = mul i64 8, %2
  %call = call i32 @memcmp(ptr noundef %0, ptr noundef %1, i64 noundef %mul) #2
  ret i32 %call
}

; Function Attrs: mustprogress nounwind uwtable
define linkonce_odr hidden noundef nonnull align 8 dereferenceable(8) ptr @_ZNSt10_Head_baseILm0EPKN3ue28NGHolderELb0EE7_M_headERKS4_(ptr noundef nonnull align 8 dereferenceable(8) %__b) #1 comdat align 2 {
entry:
  %__b.addr = alloca ptr, align 8
  store ptr %__b, ptr %__b.addr, align 8
  %0 = load ptr, ptr %__b.addr, align 8
  %_M_head_impl = getelementptr inbounds %"struct.std::_Head_base.1", ptr %0, i32 0, i32 0
  ret ptr %_M_head_impl
}

; Function Attrs: mustprogress uwtable
define linkonce_odr dso_local noundef zeroext i1 @_ZNSt7__equalILb1EE5equalIyEEbPKT_S4_S4_(ptr noundef %__first1, ptr noundef %__last1, ptr noundef %__first2) #3 comdat align 2 {
entry:
  %retval = alloca i1, align 1
  %__first1.addr = alloca ptr, align 8
  %__last1.addr = alloca ptr, align 8
  %__first2.addr = alloca ptr, align 8
  %__len = alloca i64, align 8
  store ptr %__first1, ptr %__first1.addr, align 8
  store ptr %__last1, ptr %__last1.addr, align 8
  store ptr %__first2, ptr %__first2.addr, align 8
  %0 = load ptr, ptr %__last1.addr, align 8
  %1 = load ptr, ptr %__first1.addr, align 8
  %sub.ptr.lhs.cast = ptrtoint ptr %0 to i64
  %sub.ptr.rhs.cast = ptrtoint ptr %1 to i64
  %sub.ptr.sub = sub i64 %sub.ptr.lhs.cast, %sub.ptr.rhs.cast
  %sub.ptr.div = sdiv exact i64 %sub.ptr.sub, 8
  store i64 %sub.ptr.div, ptr %__len, align 8
  %2 = load i64, ptr %__len, align 8
  %tobool = icmp ne i64 %2, 0
  br i1 %tobool, label %if.then, label %if.end

if.then:                                          ; preds = %entry
  %3 = load ptr, ptr %__first1.addr, align 8
  %4 = load ptr, ptr %__first2.addr, align 8
  %5 = load i64, ptr %__len, align 8
  %call = call noundef i32 @_ZSt8__memcmpIyyEiPKT_PKT0_m(ptr noundef %3, ptr noundef %4, i64 noundef %5)
  %tobool1 = icmp ne i32 %call, 0
  %lnot = xor i1 %tobool1, true
  store i1 %lnot, ptr %retval, align 1
  br label %return

if.end:                                           ; preds = %entry
  store i1 true, ptr %retval, align 1
  br label %return

return:                                           ; preds = %if.end, %if.then
  %6 = load i1, ptr %retval, align 1
  ret i1 %6
}

; Function Attrs: mustprogress nounwind uwtable
define linkonce_odr hidden noundef nonnull align 8 dereferenceable(8) ptr @_ZNSt11_Tuple_implILm0EJPKN3ue28NGHolderESt14default_deleteIS2_EEE7_M_headERKS6_(ptr noundef nonnull align 8 dereferenceable(8) %__t) #1 comdat align 2 {
entry:
  %__t.addr = alloca ptr, align 8
  store ptr %__t, ptr %__t.addr, align 8
  %0 = load ptr, ptr %__t.addr, align 8
  %call = call noundef nonnull align 8 dereferenceable(8) ptr @_ZNSt10_Head_baseILm0EPKN3ue28NGHolderELb0EE7_M_headERKS4_(ptr noundef nonnull align 8 dereferenceable(8) %0) #2
  ret ptr %call
}

; Function Attrs: mustprogress uwtable
define linkonce_odr dso_local noundef zeroext i1 @_ZSt12__equal_aux1IPKyS1_EbT_S2_T0_(ptr noundef %__first1, ptr noundef %__last1, ptr noundef %__first2) #3 comdat {
entry:
  %__first1.addr = alloca ptr, align 8
  %__last1.addr = alloca ptr, align 8
  %__first2.addr = alloca ptr, align 8
  %__simple = alloca i8, align 1
  store ptr %__first1, ptr %__first1.addr, align 8
  store ptr %__last1, ptr %__last1.addr, align 8
  store ptr %__first2, ptr %__first2.addr, align 8
  store i8 1, ptr %__simple, align 1
  %0 = load ptr, ptr %__first1.addr, align 8
  %1 = load ptr, ptr %__last1.addr, align 8
  %2 = load ptr, ptr %__first2.addr, align 8
  %call = call noundef zeroext i1 @_ZNSt7__equalILb1EE5equalIyEEbPKT_S4_S4_(ptr noundef %0, ptr noundef %1, ptr noundef %2)
  ret i1 %call
}

; Function Attrs: mustprogress nounwind uwtable
define linkonce_odr dso_local noundef ptr @_ZSt12__niter_baseIPKyET_S2_(ptr noundef %__it) #1 comdat {
entry:
  %__it.addr = alloca ptr, align 8
  store ptr %__it, ptr %__it.addr, align 8
  %0 = load ptr, ptr %__it.addr, align 8
  ret ptr %0
}

; Function Attrs: mustprogress nounwind uwtable
define linkonce_odr dso_local noundef ptr @_ZNSt14__array_traitsIyLm4EE6_S_ptrERA4_Ky(ptr noundef nonnull align 8 dereferenceable(32) %__t) #1 comdat align 2 {
entry:
  %__t.addr = alloca ptr, align 8
  store ptr %__t, ptr %__t.addr, align 8
  %0 = load ptr, ptr %__t.addr, align 8
  %arraydecay = getelementptr inbounds [4 x i64], ptr %0, i64 0, i64 0
  ret ptr %arraydecay
}

; Function Attrs: mustprogress nounwind uwtable
define linkonce_odr hidden noundef nonnull align 8 dereferenceable(8) ptr @_ZSt12__get_helperILm0EPKN3ue28NGHolderEJSt14default_deleteIS2_EEERKT0_RKSt11_Tuple_implIXT_EJS6_DpT1_EE(ptr noundef nonnull align 8 dereferenceable(8) %__t) #1 comdat {
entry:
  %__t.addr = alloca ptr, align 8
  store ptr %__t, ptr %__t.addr, align 8
  %0 = load ptr, ptr %__t.addr, align 8
  %call = call noundef nonnull align 8 dereferenceable(8) ptr @_ZNSt11_Tuple_implILm0EJPKN3ue28NGHolderESt14default_deleteIS2_EEE7_M_headERKS6_(ptr noundef nonnull align 8 dereferenceable(8) %0) #2
  ret ptr %call
}

; Function Attrs: mustprogress uwtable
define linkonce_odr dso_local noundef zeroext i1 @_ZSt11__equal_auxIPKyS1_EbT_S2_T0_(ptr noundef %__first1, ptr noundef %__last1, ptr noundef %__first2) #3 comdat {
entry:
  %__first1.addr = alloca ptr, align 8
  %__last1.addr = alloca ptr, align 8
  %__first2.addr = alloca ptr, align 8
  store ptr %__first1, ptr %__first1.addr, align 8
  store ptr %__last1, ptr %__last1.addr, align 8
  store ptr %__first2, ptr %__first2.addr, align 8
  %0 = load ptr, ptr %__first1.addr, align 8
  %call = call noundef ptr @_ZSt12__niter_baseIPKyET_S2_(ptr noundef %0) #2
  %1 = load ptr, ptr %__last1.addr, align 8
  %call1 = call noundef ptr @_ZSt12__niter_baseIPKyET_S2_(ptr noundef %1) #2
  %2 = load ptr, ptr %__first2.addr, align 8
  %call2 = call noundef ptr @_ZSt12__niter_baseIPKyET_S2_(ptr noundef %2) #2
  %call3 = call noundef zeroext i1 @_ZSt12__equal_aux1IPKyS1_EbT_S2_T0_(ptr noundef %call, ptr noundef %call1, ptr noundef %call2)
  ret i1 %call3
}

; Function Attrs: mustprogress nounwind uwtable
define linkonce_odr dso_local noundef ptr @_ZNKSt5arrayIyLm4EE4dataEv(ptr noundef nonnull align 8 dereferenceable(32) %this) #1 comdat align 2 {
entry:
  %this.addr = alloca ptr, align 8
  store ptr %this, ptr %this.addr, align 8
  %this1 = load ptr, ptr %this.addr, align 8
  %_M_elems = getelementptr inbounds %"struct.std::array", ptr %this1, i32 0, i32 0
  %call = call noundef ptr @_ZNSt14__array_traitsIyLm4EE6_S_ptrERA4_Ky(ptr noundef nonnull align 8 dereferenceable(32) %_M_elems) #2
  ret ptr %call
}

; Function Attrs: mustprogress nounwind uwtable
define linkonce_odr hidden noundef nonnull align 8 dereferenceable(8) ptr @_ZSt3getILm0EJPKN3ue28NGHolderESt14default_deleteIS2_EEERKNSt13tuple_elementIXT_ESt5tupleIJDpT0_EEE4typeERKSA_(ptr noundef nonnull align 8 dereferenceable(8) %__t) #1 comdat {
entry:
  %__t.addr = alloca ptr, align 8
  store ptr %__t, ptr %__t.addr, align 8
  %0 = load ptr, ptr %__t.addr, align 8
  %call = call noundef nonnull align 8 dereferenceable(8) ptr @_ZSt12__get_helperILm0EPKN3ue28NGHolderEJSt14default_deleteIS2_EEERKT0_RKSt11_Tuple_implIXT_EJS6_DpT1_EE(ptr noundef nonnull align 8 dereferenceable(8) %0) #2
  ret ptr %call
}

; Function Attrs: mustprogress uwtable
define linkonce_odr dso_local noundef zeroext i1 @_ZSt5equalIPKyS1_EbT_S2_T0_(ptr noundef %__first1, ptr noundef %__last1, ptr noundef %__first2) #3 comdat {
entry:
  %__first1.addr = alloca ptr, align 8
  %__last1.addr = alloca ptr, align 8
  %__first2.addr = alloca ptr, align 8
  store ptr %__first1, ptr %__first1.addr, align 8
  store ptr %__last1, ptr %__last1.addr, align 8
  store ptr %__first2, ptr %__first2.addr, align 8
  %0 = load ptr, ptr %__first1.addr, align 8
  %1 = load ptr, ptr %__last1.addr, align 8
  %2 = load ptr, ptr %__first2.addr, align 8
  %call = call noundef zeroext i1 @_ZSt11__equal_auxIPKyS1_EbT_S2_T0_(ptr noundef %0, ptr noundef %1, ptr noundef %2)
  ret i1 %call
}

; Function Attrs: mustprogress nounwind uwtable
define linkonce_odr dso_local noundef ptr @_ZNKSt5arrayIyLm4EE3endEv(ptr noundef nonnull align 8 dereferenceable(32) %this) #1 comdat align 2 {
entry:
  %this.addr = alloca ptr, align 8
  store ptr %this, ptr %this.addr, align 8
  %this1 = load ptr, ptr %this.addr, align 8
  %call = call noundef ptr @_ZNKSt5arrayIyLm4EE4dataEv(ptr noundef nonnull align 8 dereferenceable(32) %this1) #2
  %add.ptr = getelementptr inbounds i64, ptr %call, i64 4
  ret ptr %add.ptr
}

; Function Attrs: mustprogress nounwind uwtable
define linkonce_odr dso_local noundef ptr @_ZNKSt5arrayIyLm4EE5beginEv(ptr noundef nonnull align 8 dereferenceable(32) %this) #1 comdat align 2 {
entry:
  %this.addr = alloca ptr, align 8
  store ptr %this, ptr %this.addr, align 8
  %this1 = load ptr, ptr %this.addr, align 8
  %call = call noundef ptr @_ZNKSt5arrayIyLm4EE4dataEv(ptr noundef nonnull align 8 dereferenceable(32) %this1) #2
  ret ptr %call
}

; Function Attrs: mustprogress nounwind uwtable
define linkonce_odr hidden noundef ptr @_ZNKSt15__uniq_ptr_implIKN3ue28NGHolderESt14default_deleteIS2_EE6_M_ptrEv(ptr noundef nonnull align 8 dereferenceable(8) %this) #1 comdat align 2 {
entry:
  %this.addr = alloca ptr, align 8
  store ptr %this, ptr %this.addr, align 8
  %this1 = load ptr, ptr %this.addr, align 8
  %_M_t = getelementptr inbounds %"class.std::__uniq_ptr_impl", ptr %this1, i32 0, i32 0
  %call = call noundef nonnull align 8 dereferenceable(8) ptr @_ZSt3getILm0EJPKN3ue28NGHolderESt14default_deleteIS2_EEERKNSt13tuple_elementIXT_ESt5tupleIJDpT0_EEE4typeERKSA_(ptr noundef nonnull align 8 dereferenceable(8) %_M_t) #2
  %0 = load ptr, ptr %call, align 8
  ret ptr %0
}

; Function Attrs: mustprogress uwtable
define linkonce_odr dso_local noundef zeroext i1 @_ZSteqIyLm4EEbRKSt5arrayIT_XT0_EES4_(ptr noundef nonnull align 8 dereferenceable(32) %__one, ptr noundef nonnull align 8 dereferenceable(32) %__two) #3 comdat {
entry:
  %__one.addr = alloca ptr, align 8
  %__two.addr = alloca ptr, align 8
  store ptr %__one, ptr %__one.addr, align 8
  store ptr %__two, ptr %__two.addr, align 8
  %0 = load ptr, ptr %__one.addr, align 8
  %call = call noundef ptr @_ZNKSt5arrayIyLm4EE5beginEv(ptr noundef nonnull align 8 dereferenceable(32) %0) #2
  %1 = load ptr, ptr %__one.addr, align 8
  %call1 = call noundef ptr @_ZNKSt5arrayIyLm4EE3endEv(ptr noundef nonnull align 8 dereferenceable(32) %1) #2
  %2 = load ptr, ptr %__two.addr, align 8
  %call2 = call noundef ptr @_ZNKSt5arrayIyLm4EE5beginEv(ptr noundef nonnull align 8 dereferenceable(32) %2) #2
  %call3 = call noundef zeroext i1 @_ZSt5equalIPKyS1_EbT_S2_T0_(ptr noundef %call, ptr noundef %call1, ptr noundef %call2)
  ret i1 %call3
}

; Function Attrs: mustprogress nounwind uwtable
define linkonce_odr hidden noundef ptr @_ZNKSt10unique_ptrIKN3ue28NGHolderESt14default_deleteIS2_EE3getEv(ptr noundef nonnull align 8 dereferenceable(8) %this) #1 comdat align 2 {
entry:
  %this.addr = alloca ptr, align 8
  store ptr %this, ptr %this.addr, align 8
  %this1 = load ptr, ptr %this.addr, align 8
  %_M_t = getelementptr inbounds %"class.std::unique_ptr", ptr %this1, i32 0, i32 0
  %call = call noundef ptr @_ZNKSt15__uniq_ptr_implIKN3ue28NGHolderESt14default_deleteIS2_EE6_M_ptrEv(ptr noundef nonnull align 8 dereferenceable(8) %_M_t) #2
  ret ptr %call
}

; Function Attrs: mustprogress uwtable
define linkonce_odr hidden noundef zeroext i1 @_ZNK3ue28bitfieldILm256EEeqERKS1_(ptr noundef nonnull align 8 dereferenceable(32) %this, ptr noundef nonnull align 8 dereferenceable(32) %a) #3 comdat align 2 {
entry:
  %this.addr = alloca ptr, align 8
  %a.addr = alloca ptr, align 8
  store ptr %this, ptr %this.addr, align 8
  store ptr %a, ptr %a.addr, align 8
  %this1 = load ptr, ptr %this.addr, align 8
  %bits = getelementptr inbounds %"class.ue2::bitfield", ptr %this1, i32 0, i32 0
  %0 = load ptr, ptr %a.addr, align 8
  %bits2 = getelementptr inbounds %"class.ue2::bitfield", ptr %0, i32 0, i32 0
  %call = call noundef zeroext i1 @_ZSteqIyLm4EEbRKSt5arrayIT_XT0_EES4_(ptr noundef nonnull align 8 dereferenceable(32) %bits, ptr noundef nonnull align 8 dereferenceable(32) %bits2)
  ret i1 %call
}

; Function Attrs: mustprogress nounwind uwtable
define linkonce_odr hidden noundef nonnull align 8 dereferenceable(136) ptr @_ZNKSt10unique_ptrIKN3ue28NGHolderESt14default_deleteIS2_EEdeEv(ptr noundef nonnull align 8 dereferenceable(8) %this) #1 comdat align 2 {
entry:
  %this.addr = alloca ptr, align 8
  store ptr %this, ptr %this.addr, align 8
  %this1 = load ptr, ptr %this.addr, align 8
  br label %do.body

do.body:                                          ; preds = %entry
  br label %do.cond

do.cond:                                          ; preds = %do.body
  br label %do.end

do.end:                                           ; preds = %do.cond
  %call = call noundef ptr @_ZNKSt10unique_ptrIKN3ue28NGHolderESt14default_deleteIS2_EE3getEv(ptr noundef nonnull align 8 dereferenceable(8) %this1) #2
  ret ptr %call
}

; Function Attrs: mustprogress uwtable
define linkonce_odr hidden noundef zeroext i1 @_ZNK3ue29CharReacheqERKS0_(ptr noundef nonnull align 8 dereferenceable(32) %this, ptr noundef nonnull align 8 dereferenceable(32) %a) #3 comdat align 2 {
entry:
  %this.addr = alloca ptr, align 8
  %a.addr = alloca ptr, align 8
  store ptr %this, ptr %this.addr, align 8
  store ptr %a, ptr %a.addr, align 8
  %this1 = load ptr, ptr %this.addr, align 8
  %bits = getelementptr inbounds %"class.ue2::CharReach", ptr %this1, i32 0, i32 0
  %0 = load ptr, ptr %a.addr, align 8
  %bits2 = getelementptr inbounds %"class.ue2::CharReach", ptr %0, i32 0, i32 0
  %call = call noundef zeroext i1 @_ZNK3ue28bitfieldILm256EEeqERKS1_(ptr noundef nonnull align 8 dereferenceable(32) %bits, ptr noundef nonnull align 8 dereferenceable(32) %bits2)
  ret i1 %call
}

; Function Attrs: mustprogress uwtable
define hidden noundef zeroext i1 @_ZNK3ue214SlotEntryEqualclERKNS_14SlotCacheEntryES3_(ptr noundef nonnull align 1 dereferenceable(1) %this, ptr noundef nonnull align 8 dereferenceable(52) %a, ptr noundef nonnull align 8 dereferenceable(52) %b) #3 align 2 {
entry:
  %this.addr = alloca ptr, align 8
  %a.addr = alloca ptr, align 8
  %b.addr = alloca ptr, align 8
  store ptr %this, ptr %this.addr, align 8
  store ptr %a, ptr %a.addr, align 8
  store ptr %b, ptr %b.addr, align 8
  %0 = load ptr, ptr %a.addr, align 8
  %parent_slot = getelementptr inbounds %"struct.ue2::SlotCacheEntry", ptr %0, i32 0, i32 2
  %1 = load i32, ptr %parent_slot, align 8
  %2 = load ptr, ptr %b.addr, align 8
  %parent_slot2 = getelementptr inbounds %"struct.ue2::SlotCacheEntry", ptr %2, i32 0, i32 2
  %3 = load i32, ptr %parent_slot2, align 8
  %cmp = icmp eq i32 %1, %3
  br i1 %cmp, label %land.lhs.true, label %land.end

land.lhs.true:                                    ; preds = %entry
  %4 = load ptr, ptr %a.addr, align 8
  %is_reset = getelementptr inbounds %"struct.ue2::SlotCacheEntry", ptr %4, i32 0, i32 3
  %5 = load i8, ptr %is_reset, align 4
  %tobool = trunc i8 %5 to i1
  %conv = zext i1 %tobool to i32
  %6 = load ptr, ptr %b.addr, align 8
  %is_reset3 = getelementptr inbounds %"struct.ue2::SlotCacheEntry", ptr %6, i32 0, i32 3
  %7 = load i8, ptr %is_reset3, align 4
  %tobool4 = trunc i8 %7 to i1
  %conv5 = zext i1 %tobool4 to i32
  %cmp6 = icmp eq i32 %conv, %conv5
  br i1 %cmp6, label %land.lhs.true7, label %land.end

land.lhs.true7:                                   ; preds = %land.lhs.true
  %8 = load ptr, ptr %a.addr, align 8
  %escapes = getelementptr inbounds %"struct.ue2::SlotCacheEntry", ptr %8, i32 0, i32 1
  %9 = load ptr, ptr %b.addr, align 8
  %escapes8 = getelementptr inbounds %"struct.ue2::SlotCacheEntry", ptr %9, i32 0, i32 1
  %call = call noundef zeroext i1 @_ZNK3ue29CharReacheqERKS0_(ptr noundef nonnull align 8 dereferenceable(32) %escapes, ptr noundef nonnull align 8 dereferenceable(32) %escapes8)
  br i1 %call, label %land.rhs, label %land.end

land.rhs:                                         ; preds = %land.lhs.true7
  %10 = load ptr, ptr %a.addr, align 8
  %prefix = getelementptr inbounds %"struct.ue2::SlotCacheEntry", ptr %10, i32 0, i32 0
  %call9 = call noundef nonnull align 8 dereferenceable(136) ptr @_ZNKSt10unique_ptrIKN3ue28NGHolderESt14default_deleteIS2_EEdeEv(ptr noundef nonnull align 8 dereferenceable(8) %prefix) #2
  %11 = load ptr, ptr %b.addr, align 8
  %prefix10 = getelementptr inbounds %"struct.ue2::SlotCacheEntry", ptr %11, i32 0, i32 0
  %call11 = call noundef nonnull align 8 dereferenceable(136) ptr @_ZNKSt10unique_ptrIKN3ue28NGHolderESt14default_deleteIS2_EEdeEv(ptr noundef nonnull align 8 dereferenceable(8) %prefix10) #2
  %call12 = call noundef zeroext i1 @_ZN3ue28is_equalERKNS_8NGHolderES2_(ptr noundef nonnull align 8 dereferenceable(136) %call9, ptr noundef nonnull align 8 dereferenceable(136) %call11)
  br label %land.end

land.end:                                         ; preds = %land.rhs, %land.lhs.true7, %land.lhs.true, %entry
  %12 = phi i1 [ false, %land.lhs.true7 ], [ false, %land.lhs.true ], [ false, %entry ], [ %call12, %land.rhs ]
  ret i1 %12
}