; Function Attrs: mustprogress uwtable
define hidden noundef zeroext i1 @_ZNK3ue214SlotEntryEqualclERKNS_14SlotCacheEntryES3_(ptr nocapture noundef nonnull readnone align 1 dereferenceable(1) %this, ptr nocapture noundef nonnull readonly align 8 dereferenceable(52) %a, ptr nocapture noundef nonnull readonly align 8 dereferenceable(52) %b) local_unnamed_addr #2 align 2 {
entry:
  %parent_slot = getelementptr inbounds i8, ptr %a, i64 40
  %0 = load i32, ptr %parent_slot, align 8
  %parent_slot2 = getelementptr inbounds i8, ptr %b, i64 40
  %1 = load i32, ptr %parent_slot2, align 8
  %cmp = icmp eq i32 %0, %1
  br i1 %cmp, label %land.lhs.true, label %land.end

land.lhs.true:                                    ; preds = %entry
  %is_reset = getelementptr inbounds i8, ptr %a, i64 44
  %2 = load i8, ptr %is_reset, align 4
  %is_reset3 = getelementptr inbounds i8, ptr %b, i64 44
  %3 = load i8, ptr %is_reset3, align 4
  %4 = xor i8 %3, %2
  %5 = and i8 %4, 1
  %cmp6 = icmp eq i8 %5, 0
  br i1 %cmp6, label %land.lhs.true7, label %land.end

land.lhs.true7:                                   ; preds = %land.lhs.true
  %escapes = getelementptr inbounds i8, ptr %a, i64 8
  %escapes8 = getelementptr inbounds i8, ptr %b, i64 8
  %bcmp.i.i.i.i.i.i.i = tail call i32 @bcmp(ptr noundef nonnull dereferenceable(32) %escapes, ptr noundef nonnull dereferenceable(32) %escapes8, i64 32)
  %tobool1.not.i.i.i.i.i.i.i = icmp eq i32 %bcmp.i.i.i.i.i.i.i, 0
  br i1 %tobool1.not.i.i.i.i.i.i.i, label %land.rhs, label %land.end

land.rhs:                                         ; preds = %land.lhs.true7
  %6 = load ptr, ptr %a, align 8
  %7 = load ptr, ptr %b, align 8
  %call12 = tail call noundef zeroext i1 @_ZN3ue28is_equalERKNS_8NGHolderES2_(ptr noundef nonnull align 8 dereferenceable(136) %6, ptr noundef nonnull align 8 dereferenceable(136) %7)
  br label %land.end

land.end:                                         ; preds = %land.rhs, %land.lhs.true7, %land.lhs.true, %entry
  %8 = phi i1 [ false, %land.lhs.true7 ], [ false, %land.lhs.true ], [ false, %entry ], [ %call12, %land.rhs ]
  ret i1 %8
}